; Function Attrs: mustprogress uwtable
define void @_ZNK10open_spiel11negotiation15NegotiationGame11SetRNGStateERKNSt7__cxx1112basic_stringIcSt11char_traitsIcESaIcEEE(ptr nocapture noundef nonnull readonly align 8 dereferenceable(336) %0, ptr noundef nonnull align 8 dereferenceable(32) %1) unnamed_addr #3 align 2 personality ptr @__gxx_personality_v0 {
  %3 = alloca %"class.std::__cxx11::basic_istringstream", align 8
  %4 = tail call noundef zeroext i1 @_ZNKSt7__cxx1112basic_stringIcSt11char_traitsIcESaIcEE5emptyEv(ptr noundef nonnull align 8 dereferenceable(32) %1) #32
  br i1 %4, label %27, label %5

5:                                                ; preds = %2
  call void @_ZNSt7__cxx1119basic_istringstreamIcSt11char_traitsIcESaIcEEC1ERKNS_12basic_stringIcS2_S3_EESt13_Ios_Openmode(ptr noundef nonnull align 8 dereferenceable(120) %3, ptr noundef nonnull align 8 dereferenceable(32) %1, i32 noundef 8)
  %6 = getelementptr inbounds nuw i8, ptr %0, i64 328
  %7 = load ptr, ptr %6, align 8
  %8 = load ptr, ptr %3, align 8
  %9 = getelementptr i8, ptr %8, i64 -24
  %10 = load i64, ptr %9, align 8
  %11 = getelementptr inbounds i8, ptr %3, i64 %10
  %12 = getelementptr inbounds nuw i8, ptr %11, i64 24
  %13 = load i32, ptr %12, align 8
  store i32 4098, ptr %12, align 8
  br label %14

14:                                               ; preds = %.noexc, %5
  %.011.i = phi i64 [ 0, %5 ], [ %17, %.noexc ]
  %15 = getelementptr inbounds [624 x i64], ptr %7, i64 0, i64 %.011.i
  %16 = invoke noundef nonnull align 8 dereferenceable(16) ptr @_ZNSirsERm(ptr noundef nonnull align 8 dereferenceable(16) %3, ptr noundef nonnull align 8 dereferenceable(8) %15)
          to label %.noexc unwind label %.loopexit

.noexc:                                           ; preds = %14
  %17 = add nuw nsw i64 %.011.i, 1
  %exitcond.not.i = icmp eq i64 %17, 624
  br i1 %exitcond.not.i, label %18, label %14, !llvm.loop !208

18:                                               ; preds = %.noexc
  %19 = getelementptr inbounds nuw i8, ptr %7, i64 4992
  %20 = invoke noundef nonnull align 8 dereferenceable(16) ptr @_ZNSirsERm(ptr noundef nonnull align 8 dereferenceable(16) %3, ptr noundef nonnull align 8 dereferenceable(8) %19)
          to label %21 unwind label %.loopexit.split-lp

21:                                               ; preds = %18
  %22 = load ptr, ptr %3, align 8
  %23 = getelementptr i8, ptr %22, i64 -24
  %24 = load i64, ptr %23, align 8
  %25 = getelementptr inbounds i8, ptr %3, i64 %24
  %26 = getelementptr inbounds nuw i8, ptr %25, i64 24
  store i32 %13, ptr %26, align 8
  call void @_ZNSt7__cxx1119basic_istringstreamIcSt11char_traitsIcESaIcEED1Ev(ptr noundef nonnull align 8 dereferenceable(120) %3) #32
  br label %27

27:                                               ; preds = %2, %21
  ret void

.loopexit:                                        ; preds = %14
  %lpad.loopexit = landingpad { ptr, i32 }
          cleanup
  br label %28

.loopexit.split-lp:                               ; preds = %18
  %lpad.loopexit.split-lp = landingpad { ptr, i32 }
          cleanup
  br label %28

28:                                               ; preds = %.loopexit.split-lp, %.loopexit
  %lpad.phi = phi { ptr, i32 } [ %lpad.loopexit, %.loopexit ], [ %lpad.loopexit.split-lp, %.loopexit.split-lp ]
  call void @_ZNSt7__cxx1119basic_istringstreamIcSt11char_traitsIcESaIcEED1Ev(ptr noundef nonnull align 8 dereferenceable(120) %3) #32
  resume { ptr, i32 } %lpad.phi
}